target datalayout = "e-m:e-p270:32:32-p271:32:32-p272:64:64-i64:64-i128:128-f80:128-n8:16:32:64-S128"
target triple = "x86_64-unknown-linux-gnu"

%"class.icu_75::UIterCollationIterator" = type { %"class.icu_75::CollationIterator.base", ptr }
%"class.icu_75::CollationIterator.base" = type <{ %"class.icu_75::UObject", ptr, ptr, %"class.icu_75::CollationIterator::CEBuffer", i32, [4 x i8], ptr, i32, i8 }>
%"class.icu_75::UObject" = type { ptr }
%"class.icu_75::CollationIterator::CEBuffer" = type { i32, %"class.icu_75::MaybeStackArray.0" }
%"class.icu_75::MaybeStackArray.0" = type { ptr, i32, i8, [40 x i64] }
%struct.UCharIterator = type { ptr, i32, i32, i32, i32, i32, ptr, ptr, ptr, ptr, ptr, ptr, ptr, ptr, ptr, ptr }

; Function Attrs: mustprogress uwtable
define noundef zeroext i16 @_ZN6icu_7522UIterCollationIterator23handleGetTrailSurrogateEv(ptr noundef nonnull align 8 dereferenceable(400) %this) unnamed_addr #1 align 2 {
entry:
  %this.addr = alloca ptr, align 8
  %trail = alloca i32, align 4
  store ptr %this, ptr %this.addr, align 8
  %this1 = load ptr, ptr %this.addr, align 8
  %iter = getelementptr inbounds %"class.icu_75::UIterCollationIterator", ptr %this1, i32 0, i32 1
  %0 = load ptr, ptr %iter, align 8
  %next = getelementptr inbounds %struct.UCharIterator, ptr %0, i32 0, i32 11
  %1 = load ptr, ptr %next, align 8
  %iter2 = getelementptr inbounds %"class.icu_75::UIterCollationIterator", ptr %this1, i32 0, i32 1
  %2 = load ptr, ptr %iter2, align 8
  %call = call noundef i32 %1(ptr noundef %2)
  store i32 %call, ptr %trail, align 4
  %3 = load i32, ptr %trail, align 4
  %and = and i32 %3, -1024
  %cmp = icmp eq i32 %and, 56320
  br i1 %cmp, label %if.end, label %land.lhs.true

land.lhs.true:                                    ; preds = %entry
  %4 = load i32, ptr %trail, align 4
  %cmp3 = icmp sge i32 %4, 0
  br i1 %cmp3, label %if.then, label %if.end

if.then:                                          ; preds = %land.lhs.true
  %iter4 = getelementptr inbounds %"class.icu_75::UIterCollationIterator", ptr %this1, i32 0, i32 1
  %5 = load ptr, ptr %iter4, align 8
  %previous = getelementptr inbounds %struct.UCharIterator, ptr %5, i32 0, i32 12
  %6 = load ptr, ptr %previous, align 8
  %iter5 = getelementptr inbounds %"class.icu_75::UIterCollationIterator", ptr %this1, i32 0, i32 1
  %7 = load ptr, ptr %iter5, align 8
  %call6 = call noundef i32 %6(ptr noundef %7)
  br label %if.end

if.end:                                           ; preds = %if.then, %land.lhs.true, %entry
  %8 = load i32, ptr %trail, align 4
  %conv = trunc i32 %8 to i16
  ret i16 %conv
}