; Function Attrs: mustprogress uwtable
define noundef zeroext i16 @_ZN6icu_7522UIterCollationIterator23handleGetTrailSurrogateEv(ptr nocapture noundef nonnull readonly align 8 dereferenceable(400) %this) unnamed_addr #1 align 2 {
entry:
  %iter = getelementptr inbounds i8, ptr %this, i64 392
  %0 = load ptr, ptr %iter, align 8
  %next = getelementptr inbounds i8, ptr %0, i64 72
  %1 = load ptr, ptr %next, align 8
  %call = tail call noundef i32 %1(ptr noundef %0)
  %and = and i32 %call, -1024
  %cmp = icmp ne i32 %and, 56320
  %cmp3 = icmp sgt i32 %call, -1
  %or.cond = and i1 %cmp3, %cmp
  br i1 %or.cond, label %if.then, label %if.end

if.then:                                          ; preds = %entry
  %2 = load ptr, ptr %iter, align 8
  %previous = getelementptr inbounds i8, ptr %2, i64 80
  %3 = load ptr, ptr %previous, align 8
  %call6 = tail call noundef i32 %3(ptr noundef %2)
  br label %if.end

if.end:                                           ; preds = %if.then, %entry
  %conv = trunc i32 %call to i16
  ret i16 %conv
}